; Function Attrs: nounwind uwtable
define ptr @l_Array_foldlMUnsafe_fold___at_Lean_Meta_SimpTheorems_eraseCore___spec__8(ptr noundef readonly captures(none) %0, i64 noundef %1, i64 noundef %2, ptr noundef %3) local_unnamed_addr #1 {
  %.not32 = icmp eq i64 %1, %2
  br i1 %.not32, label %._crit_edge, label %.lr.ph

.lr.ph:                                           ; preds = %4
  %5 = getelementptr inbounds nuw i8, ptr %0, i64 24
  br label %6

6:                                                ; preds = %.lr.ph, %20
  %.02034 = phi i64 [ %1, %.lr.ph ], [ %25, %20 ]
  %.02233 = phi ptr [ %3, %.lr.ph ], [ %24, %20 ]
  %7 = getelementptr inbounds nuw [0 x ptr], ptr %5, i64 0, i64 %.02034
  %8 = load ptr, ptr %7, align 8, !tbaa !9
  %9 = ptrtoint ptr %8 to i64
  %10 = and i64 %9, 1
  %.not.i = icmp eq i64 %10, 0
  br i1 %.not.i, label %11, label %lean_array_uget.exit

11:                                               ; preds = %6
  %.val.i.i = load i32, ptr %8, align 4, !tbaa !4
  %12 = icmp sgt i32 %.val.i.i, 0
  br i1 %12, label %13, label %15, !prof !11

13:                                               ; preds = %11
  %14 = add nuw i32 %.val.i.i, 1
  store i32 %14, ptr %8, align 4, !tbaa !4
  br label %lean_array_uget.exit

15:                                               ; preds = %11
  %.not.i.i = icmp eq i32 %.val.i.i, 0
  br i1 %.not.i.i, label %lean_array_uget.exit, label %16

16:                                               ; preds = %15
  tail call void @lean_inc_ref_cold(ptr noundef nonnull %8) #6
  br label %lean_array_uget.exit

lean_array_uget.exit:                             ; preds = %6, %13, %15, %16
  tail call void @lean_inc_heartbeat() #6
  %17 = tail call noalias ptr @mi_malloc_small(i64 noundef 24) #6
  %18 = icmp eq ptr %17, null
  br i1 %18, label %19, label %20

19:                                               ; preds = %lean_array_uget.exit
  tail call void @lean_internal_panic_out_of_memory() #7
  unreachable

20:                                               ; preds = %lean_array_uget.exit
  %21 = getelementptr inbounds nuw i8, ptr %17, i64 4
  %22 = getelementptr inbounds nuw i8, ptr %17, i64 16
  store i64 1, ptr %22, align 8, !tbaa !12
  store i32 1, ptr %17, align 4, !tbaa !4
  store i32 65560, ptr %21, align 4
  %23 = getelementptr inbounds nuw i8, ptr %17, i64 8
  store ptr %8, ptr %23, align 8, !tbaa !9
  %24 = tail call ptr @l_Lean_Meta_SimpTheorems_eraseCore(ptr noundef %.02233, ptr noundef nonnull %17)
  %25 = add i64 %.02034, 1
  %.not = icmp eq i64 %25, %2
  br i1 %.not, label %._crit_edge, label %6

._crit_edge:                                      ; preds = %20, %4
  %.022.lcssa = phi ptr [ %3, %4 ], [ %24, %20 ]
  ret ptr %.022.lcssa
}